; Function Attrs: mustprogress nofree norecurse nosync nounwind willreturn memory(argmem: readwrite) uwtable
define void @_ZN32pxrInternal_v0_24__pxrReserved__18PcpPrimIndex_Graph17SetIsInstanceableEb(ptr nocapture noundef nonnull align 8 dereferenceable(57) %0, i1 noundef zeroext %1) local_unnamed_addr #6 align 2 {
  %3 = getelementptr inbounds nuw i8, ptr %0, i64 56
  %4 = load i8, ptr %3, align 8
  %5 = select i1 %1, i8 2, i8 0
  %6 = and i8 %4, -3
  %7 = or disjoint i8 %6, %5
  store i8 %7, ptr %3, align 8
  ret void
}